(dp1
S'nh-100_nr-200_nc-1_l2-2.0_lr-0.0001_lrpt-0.001_trial-0'
p2
(dp3
S'nh'
p4
F100
sS'lrpt'
p5
F0.001
sS'nc'
p6
F1
sS'trial'
p7
F0
sS'lr'
p8
F0.0001
sS'l2'
p9
F2
sS'nr'
p10
F200
sS'mean_error'
p11
cnumpy.core.multiarray
scalar
p12
(cnumpy
dtype
p13
(S'f8'
I0
I1
tRp14
(I3
S'<'
NNNI-1
I-1
I0
tbS'\x93\xec[\x1d|\x00\xfc?'
tRp15
ssS'nh-100_nr-50_nc-5_l2-0.01_lr-0.001_lrpt-0.001_trial-0'
p16
(dp17
g4
F100
sg5
F0.001
sg6
F5
sg7
F0
sg8
F0.001
sg9
F0.01
sg10
F50
sg11
g12
(g14
S'Ju\xdaM7\x99\xf9?'
tRp18
ssS'nh-100_nr-100_nc-5_l2-2.0_lr-0.0001_lrpt-0.001_trial-0'
p19
(dp20
g4
F100
sg5
F0.001
sg6
F5
sg7
F0
sg8
F0.0001
sg9
F2
sg10
F100
sg11
g12
(g14
S'HfX\x97U\xdb\xf9?'
tRp21
ssS'nh-10_nr-50_nc-5_l2-2.0_lr-0.001_lrpt-0.001_trial-0'
p22
(dp23
g4
F10
sg5
F0.001
sg6
F5
sg7
F0
sg8
F0.001
sg9
F2
sg10
F50
sg11
g12
(g14
S'\x13\xfa\x8a\r\xb4h\xfb?'
tRp24
ssS'nh-50_nr-25_nc-5_l2-2.0_lr-0.0001_lrpt-0.001_trial-0'
p25
(dp26
g4
F50
sg5
F0.001
sg6
F5
sg7
F0
sg8
F0.0001
sg9
F2
sg10
F25
sg11
g12
(g14
S'\x1d\xe2V\xa8\x81\xf1\xf9?'
tRp27
ssS'nh-100_nr-25_nc-5_l2-2.0_lr-0.001_lrpt-0.001_trial-0'
p28
(dp29
g4
F100
sg5
F0.001
sg6
F5
sg7
F0
sg8
F0.001
sg9
F2
sg10
F25
sg11
g12
(g14
S'\xc8\xe4u\xc5c\x1a\xf9?'
tRp30
ssS'nh-100_nr-200_nc-1_l2-0.01_lr-0.001_lrpt-0.001_trial-0'
p31
(dp32
g4
F100
sg5
F0.001
sg6
F1
sg7
F0
sg8
F0.001
sg9
F0.01
sg10
F200
sg11
g12
(g14
S'\x84L.?+\xc3\xfa?'
tRp33
ssS'nh-10_nr-25_nc-1_l2-2.0_lr-0.0001_lrpt-0.001_trial-0'
p34
(dp35
g4
F10
sg5
F0.001
sg6
F1
sg7
F0
sg8
F0.0001
sg9
F2
sg10
F25
sg11
g12
(g14
S'\x9awo\x93#\x0e\xfd?'
tRp36
ssS'nh-50_nr-25_nc-10_l2-0.01_lr-0.0001_lrpt-0.001_trial-0'
p37
(dp38
g4
F50
sg5
F0.001
sg6
F10
sg7
F0
sg8
F0.0001
sg9
F0.01
sg10
F25
sg11
g12
(g14
S'\xe5{\xa7\xfd\x9f\xec\xfa?'
tRp39
ssS'nh-100_nr-200_nc-5_l2-2.0_lr-0.001_lrpt-0.001_trial-0'
p40
(dp41
g4
F100
sg5
F0.001
sg6
F5
sg7
F0
sg8
F0.001
sg9
F2
sg10
F200
sg11
g12
(g14
S'\xa5\xf8\xcbhZ}\xf9?'
tRp42
ssS'nh-50_nr-50_nc-10_l2-2.0_lr-0.001_lrpt-0.001_trial-0'
p43
(dp44
g4
F50
sg5
F0.001
sg6
F10
sg7
F0
sg8
F0.001
sg9
F2
sg10
F50
sg11
g12
(g14
S'\xb7\x86x\x14\x19K\xfa?'
tRp45
ssS'nh-50_nr-50_nc-5_l2-2.0_lr-0.0001_lrpt-0.001_trial-0'
p46
(dp47
g4
F50
sg5
F0.001
sg6
F5
sg7
F0
sg8
F0.0001
sg9
F2
sg10
F50
sg11
g12
(g14
S'\xca\x0f&}}\x17\xfa?'
tRp48
ssS'nh-10_nr-25_nc-2_l2-0.01_lr-0.0001_lrpt-0.001_trial-0'
p49
(dp50
g4
F10
sg5
F0.001
sg6
F2
sg7
F0
sg8
F0.0001
sg9
F0.01
sg10
F25
sg11
g12
(g14
S'\x94\xc2v\ru\xd0\t@'
tRp51
ssS'nh-100_nr-100_nc-10_l2-0.01_lr-0.0001_lrpt-0.001_trial-0'
p52
(dp53
g4
F100
sg5
F0.001
sg6
F10
sg7
F0
sg8
F0.0001
sg9
F0.01
sg10
F100
sg11
g12
(g14
S'\xceZ\x823\x01"\xfb?'
tRp54
ssS'nh-10_nr-25_nc-10_l2-0.01_lr-0.0001_lrpt-0.001_trial-0'
p55
(dp56
g4
F10
sg5
F0.001
sg6
F10
sg7
F0
sg8
F0.0001
sg9
F0.01
sg10
F25
sg11
g12
(g14
S'\xa3*\x8d\xab\x11\xa4\xfe?'
tRp57
ssS'nh-50_nr-100_nc-1_l2-0.01_lr-0.001_lrpt-0.001_trial-0'
p58
(dp59
g4
F50
sg5
F0.001
sg6
F1
sg7
F0
sg8
F0.001
sg9
F0.01
sg10
F100
sg11
g12
(g14
S'%\xfdO\x95\xfay\xfb?'
tRp60
ssS'nh-50_nr-50_nc-10_l2-0.01_lr-0.001_lrpt-0.001_trial-0'
p61
(dp62
g4
F50
sg5
F0.001
sg6
F10
sg7
F0
sg8
F0.001
sg9
F0.01
sg10
F50
sg11
g12
(g14
S'\xd7\xa2\x13\xe4\x8b\xd6\xf9?'
tRp63
ssS'nh-100_nr-200_nc-2_l2-2.0_lr-0.001_lrpt-0.001_trial-0'
p64
(dp65
g4
F100
sg5
F0.001
sg6
F2
sg7
F0
sg8
F0.001
sg9
F2
sg10
F200
sg11
g12
(g14
S'OM)S\x13y\xfb?'
tRp66
ssS'nh-10_nr-50_nc-10_l2-2.0_lr-0.001_lrpt-0.001_trial-0'
p67
(dp68
g4
F10
sg5
F0.001
sg6
F10
sg7
F0
sg8
F0.001
sg9
F2
sg10
F50
sg11
g12
(g14
S'R\x12l\\?\n\xfc?'
tRp69
ssS'nh-100_nr-50_nc-2_l2-2.0_lr-0.001_lrpt-0.001_trial-0'
p70
(dp71
g4
F100
sg5
F0.001
sg6
F2
sg7
F0
sg8
F0.001
sg9
F2
sg10
F50
sg11
g12
(g14
S'\x92\x1e\xb1>\xdb\xd7\xf9?'
tRp72
ssS'nh-100_nr-200_nc-5_l2-2.0_lr-0.0001_lrpt-0.001_trial-0'
p73
(dp74
g4
F100
sg5
F0.001
sg6
F5
sg7
F0
sg8
F0.0001
sg9
F2
sg10
F200
sg11
g12
(g14
S'o\xd9\xf0\x14\xbf\x99\xf9?'
tRp75
ssS'nh-100_nr-100_nc-2_l2-2.0_lr-0.001_lrpt-0.001_trial-0'
p76
(dp77
g4
F100
sg5
F0.001
sg6
F2
sg7
F0
sg8
F0.001
sg9
F2
sg10
F100
sg11
g12
(g14
S'\xf2\xe2\x8e\xe1]\xf5\xfa?'
tRp78
ssS'nh-100_nr-25_nc-10_l2-2.0_lr-0.0001_lrpt-0.001_trial-0'
p79
(dp80
g4
F100
sg5
F0.001
sg6
F10
sg7
F0
sg8
F0.0001
sg9
F2
sg10
F25
sg11
g12
(g14
S'l\xf8d;\xda\x9a\xf9?'
tRp81
ssS'nh-10_nr-50_nc-5_l2-0.01_lr-0.001_lrpt-0.001_trial-0'
p82
(dp83
g4
F10
sg5
F0.001
sg6
F5
sg7
F0
sg8
F0.001
sg9
F0.01
sg10
F50
sg11
g12
(g14
S'\x11;R\xfc\xf0\xbd\xfc?'
tRp84
ssS'nh-100_nr-25_nc-10_l2-2.0_lr-0.001_lrpt-0.001_trial-0'
p85
(dp86
g4
F100
sg5
F0.001
sg6
F10
sg7
F0
sg8
F0.001
sg9
F2
sg10
F25
sg11
g12
(g14
S'\x8d\xb4\x8b\x96\xc6;\xfa?'
tRp87
ssS'nh-10_nr-100_nc-10_l2-0.01_lr-0.001_lrpt-0.001_trial-0'
p88
(dp89
g4
F10
sg5
F0.001
sg6
F10
sg7
F0
sg8
F0.001
sg9
F0.01
sg10
F100
sg11
g12
(g14
S'\xbd~Tw\xb0\xad\xfa?'
tRp90
ssS'nh-10_nr-50_nc-5_l2-0.01_lr-0.0001_lrpt-0.001_trial-0'
p91
(dp92
g4
F10
sg5
F0.001
sg6
F5
sg7
F0
sg8
F0.0001
sg9
F0.01
sg10
F50
sg11
g12
(g14
S'1\xb3\xf4\x01\xf0\x0b\xfb?'
tRp93
ssS'nh-10_nr-50_nc-10_l2-2.0_lr-0.0001_lrpt-0.001_trial-0'
p94
(dp95
g4
F10
sg5
F0.001
sg6
F10
sg7
F0
sg8
F0.0001
sg9
F2
sg10
F50
sg11
g12
(g14
S'\xe4\xd1s\xe2\x97\xa7\xfa?'
tRp96
ssS'nh-10_nr-50_nc-10_l2-0.01_lr-0.001_lrpt-0.001_trial-0'
p97
(dp98
g4
F10
sg5
F0.001
sg6
F10
sg7
F0
sg8
F0.001
sg9
F0.01
sg10
F50
sg11
g12
(g14
S'\x9f<\x8f\x8b)\x80\xfa?'
tRp99
ssS'nh-100_nr-200_nc-2_l2-2.0_lr-0.0001_lrpt-0.001_trial-0'
p100
(dp101
g4
F100
sg5
F0.001
sg6
F2
sg7
F0
sg8
F0.0001
sg9
F2
sg10
F200
sg11
g12
(g14
S'\x9c\xc7S\xfd\xc1\x99\xfb?'
tRp102
ssS'nh-100_nr-300_nc-1_l2-0.01_lr-0.001_lrpt-0.001_trial-0'
p103
(dp104
g4
F100
sg5
F0.001
sg6
F1
sg7
F0
sg8
F0.001
sg9
F0.01
sg10
F300
sg11
g12
(g14
S'\xe4\xe3\xe9]0\xe0\xfa?'
tRp105
ssS'nh-100_nr-25_nc-5_l2-0.01_lr-0.001_lrpt-0.001_trial-0'
p106
(dp107
g4
F100
sg5
F0.001
sg6
F5
sg7
F0
sg8
F0.001
sg9
F0.01
sg10
F25
sg11
g12
(g14
S'\xa99D\x8e\x02\x8e\xfa?'
tRp108
ssS'nh-10_nr-50_nc-2_l2-2.0_lr-0.0001_lrpt-0.001_trial-0'
p109
(dp110
g4
F10
sg5
F0.001
sg6
F2
sg7
F0
sg8
F0.0001
sg9
F2
sg10
F50
sg11
g12
(g14
S'\xb1D*\x91q\xff\xfb?'
tRp111
ssS'nh-10_nr-25_nc-2_l2-0.01_lr-0.001_lrpt-0.001_trial-0'
p112
(dp113
g4
F10
sg5
F0.001
sg6
F2
sg7
F0
sg8
F0.001
sg9
F0.01
sg10
F25
sg11
g12
(g14
S'\xcf\x01\x8cbE\xa9\xfd?'
tRp114
ssS'nh-100_nr-300_nc-1_l2-2.0_lr-0.0001_lrpt-0.001_trial-0'
p115
(dp116
g4
F100
sg5
F0.001
sg6
F1
sg7
F0
sg8
F0.0001
sg9
F2
sg10
F300
sg11
g12
(g14
S'\xe9\x90-A\xaf\xfb\xfa?'
tRp117
ssS'nh-100_nr-25_nc-5_l2-2.0_lr-0.0001_lrpt-0.001_trial-0'
p118
(dp119
g4
F100
sg5
F0.001
sg6
F5
sg7
F0
sg8
F0.0001
sg9
F2
sg10
F25
sg11
g12
(g14
S'=B\x9f\x11^\xd7\xfa?'
tRp120
ssS'nh-50_nr-25_nc-5_l2-0.01_lr-0.0001_lrpt-0.001_trial-0'
p121
(dp122
g4
F50
sg5
F0.001
sg6
F5
sg7
F0
sg8
F0.0001
sg9
F0.01
sg10
F25
sg11
g12
(g14
S'\xdc\xc5\x91:Bu\xf9?'
tRp123
ssS'nh-10_nr-100_nc-5_l2-0.01_lr-0.0001_lrpt-0.001_trial-0'
p124
(dp125
g4
F10
sg5
F0.001
sg6
F5
sg7
F0
sg8
F0.0001
sg9
F0.01
sg10
F100
sg11
g12
(g14
S'\x13\xea\xbd\x0b\xebl\xfa?'
tRp126
ssS'nh-100_nr-200_nc-5_l2-0.01_lr-0.001_lrpt-0.001_trial-0'
p127
(dp128
g4
F100
sg5
F0.001
sg6
F5
sg7
F0
sg8
F0.001
sg9
F0.01
sg10
F200
sg11
g12
(g14
S'\xcc\xd0\xad\xd4\xd1@\xfa?'
tRp129
ssS'nh-100_nr-50_nc-1_l2-0.01_lr-0.001_lrpt-0.001_trial-0'
p130
(dp131
g4
F100
sg5
F0.001
sg6
F1
sg7
F0
sg8
F0.001
sg9
F0.01
sg10
F50
sg11
g12
(g14
S'\xec\xa0I\x8a\xf4\x91\xfc?'
tRp132
ssS'nh-100_nr-100_nc-10_l2-0.01_lr-0.001_lrpt-0.001_trial-0'
p133
(dp134
g4
F100
sg5
F0.001
sg6
F10
sg7
F0
sg8
F0.001
sg9
F0.01
sg10
F100
sg11
g12
(g14
S'\xce\xe0\x84b\x16\xd1\xf9?'
tRp135
ssS'nh-10_nr-25_nc-1_l2-2.0_lr-0.001_lrpt-0.001_trial-0'
p136
(dp137
g4
F10
sg5
F0.001
sg6
F1
sg7
F0
sg8
F0.001
sg9
F2
sg10
F25
sg11
g12
(g14
S'\x1b\xd8h\x98:\xb5\xfb?'
tRp138
ssS'nh-10_nr-25_nc-5_l2-0.01_lr-0.001_lrpt-0.001_trial-0'
p139
(dp140
g4
F10
sg5
F0.001
sg6
F5
sg7
F0
sg8
F0.001
sg9
F0.01
sg10
F25
sg11
g12
(g14
S'\xc9*\xd37\xb3\x11\xfd?'
tRp141
ssS'nh-10_nr-25_nc-1_l2-0.01_lr-0.0001_lrpt-0.001_trial-0'
p142
(dp143
g4
F10
sg5
F0.001
sg6
F1
sg7
F0
sg8
F0.0001
sg9
F0.01
sg10
F25
sg11
g12
(g14
S'\x8c;\x8a\xdf!\x90\xfc?'
tRp144
ssS'nh-10_nr-25_nc-10_l2-0.01_lr-0.001_lrpt-0.001_trial-0'
p145
(dp146
g4
F10
sg5
F0.001
sg6
F10
sg7
F0
sg8
F0.001
sg9
F0.01
sg10
F25
sg11
g12
(g14
S'\xadf6\x17\xd5\xd9\xfb?'
tRp147
ssS'nh-100_nr-200_nc-2_l2-0.01_lr-0.001_lrpt-0.001_trial-0'
p148
(dp149
g4
F100
sg5
F0.001
sg6
F2
sg7
F0
sg8
F0.001
sg9
F0.01
sg10
F200
sg11
g12
(g14
S'\xa4\x8aqa\xcb\xe7\xfa?'
tRp150
ssS'nh-10_nr-50_nc-5_l2-2.0_lr-0.0001_lrpt-0.001_trial-0'
p151
(dp152
g4
F10
sg5
F0.001
sg6
F5
sg7
F0
sg8
F0.0001
sg9
F2
sg10
F50
sg11
g12
(g14
S'W\t\x97C\x9c\xb8\xfa?'
tRp153
ssS'nh-50_nr-25_nc-10_l2-2.0_lr-0.0001_lrpt-0.001_trial-0'
p154
(dp155
g4
F50
sg5
F0.001
sg6
F10
sg7
F0
sg8
F0.0001
sg9
F2
sg10
F25
sg11
g12
(g14
S'EC\x837\xffn\xf9?'
tRp156
ssS'nh-50_nr-25_nc-10_l2-0.01_lr-0.001_lrpt-0.001_trial-0'
p157
(dp158
g4
F50
sg5
F0.001
sg6
F10
sg7
F0
sg8
F0.001
sg9
F0.01
sg10
F25
sg11
g12
(g14
S'og\xed\x89\xb0\xf7\xfa?'
tRp159
ssS'nh-100_nr-50_nc-1_l2-2.0_lr-0.0001_lrpt-0.001_trial-0'
p160
(dp161
g4
F100
sg5
F0.001
sg6
F1
sg7
F0
sg8
F0.0001
sg9
F2
sg10
F50
sg11
g12
(g14
S'\x1d\x1d\x89?\x9a`\xfb?'
tRp162
ssS'nh-100_nr-100_nc-2_l2-0.01_lr-0.001_lrpt-0.001_trial-0'
p163
(dp164
g4
F100
sg5
F0.001
sg6
F2
sg7
F0
sg8
F0.001
sg9
F0.01
sg10
F100
sg11
g12
(g14
S'\xbd\xbam\xf6\xe3\xcf\xf9?'
tRp165
ssS'nh-100_nr-50_nc-5_l2-2.0_lr-0.0001_lrpt-0.001_trial-0'
p166
(dp167
g4
F100
sg5
F0.001
sg6
F5
sg7
F0
sg8
F0.0001
sg9
F2
sg10
F50
sg11
g12
(g14
S'e\x11\x9c\x8aH+\xfa?'
tRp168
ssS'nh-50_nr-25_nc-2_l2-2.0_lr-0.0001_lrpt-0.001_trial-0'
p169
(dp170
g4
F50
sg5
F0.001
sg6
F2
sg7
F0
sg8
F0.0001
sg9
F2
sg10
F25
sg11
g12
(g14
S'\xed_\x9a\x15#U\xfc?'
tRp171
ssS'nh-10_nr-100_nc-10_l2-2.0_lr-0.001_lrpt-0.001_trial-0'
p172
(dp173
g4
F10
sg5
F0.001
sg6
F10
sg7
F0
sg8
F0.001
sg9
F2
sg10
F100
sg11
g12
(g14
S'\xed\xb5Q\xf6\\\x81\xfa?'
tRp174
ssS'nh-100_nr-50_nc-2_l2-0.01_lr-0.001_lrpt-0.001_trial-0'
p175
(dp176
g4
F100
sg5
F0.001
sg6
F2
sg7
F0
sg8
F0.001
sg9
F0.01
sg10
F50
sg11
g12
(g14
S'\re\xb4\xb8+M\xfa?'
tRp177
ssS'nh-100_nr-50_nc-5_l2-2.0_lr-0.001_lrpt-0.001_trial-0'
p178
(dp179
g4
F100
sg5
F0.001
sg6
F5
sg7
F0
sg8
F0.001
sg9
F2
sg10
F50
sg11
g12
(g14
S'\x08\xb3g4?\x17\xfa?'
tRp180
ssS'nh-100_nr-100_nc-5_l2-0.01_lr-0.001_lrpt-0.001_trial-0'
p181
(dp182
g4
F100
sg5
F0.001
sg6
F5
sg7
F0
sg8
F0.001
sg9
F0.01
sg10
F100
sg11
g12
(g14
S' \xa8\x9a\x17ye\xfa?'
tRp183
ssS'nh-50_nr-25_nc-5_l2-2.0_lr-0.001_lrpt-0.001_trial-0'
p184
(dp185
g4
F50
sg5
F0.001
sg6
F5
sg7
F0
sg8
F0.001
sg9
F2
sg10
F25
sg11
g12
(g14
S'\xf1\xb9\x03\x1d;\xce\xf9?'
tRp186
ssS'nh-100_nr-100_nc-1_l2-2.0_lr-0.001_lrpt-0.001_trial-0'
p187
(dp188
g4
F100
sg5
F0.001
sg6
F1
sg7
F0
sg8
F0.001
sg9
F2
sg10
F100
sg11
g12
(g14
S'QR\xdf>[\xc4\xfb?'
tRp189
ssS'nh-100_nr-50_nc-2_l2-2.0_lr-0.0001_lrpt-0.001_trial-0'
p190
(dp191
g4
F100
sg5
F0.001
sg6
F2
sg7
F0
sg8
F0.0001
sg9
F2
sg10
F50
sg11
g12
(g14
S',@\xf4\xec\xcd\x0b\xfb?'
tRp192
ssS'nh-100_nr-300_nc-2_l2-0.01_lr-0.0001_lrpt-0.001_trial-0'
p193
(dp194
g4
F100
sg5
F0.001
sg6
F2
sg7
F0
sg8
F0.0001
sg9
F0.01
sg10
F300
sg11
g12
(g14
S'\xc6\xdeOdPi\xfb?'
tRp195
ssS'nh-100_nr-25_nc-10_l2-0.01_lr-0.0001_lrpt-0.001_trial-0'
p196
(dp197
g4
F100
sg5
F0.001
sg6
F10
sg7
F0
sg8
F0.0001
sg9
F0.01
sg10
F25
sg11
g12
(g14
S'\x91o\x06\x83J\xb9\xfe?'
tRp198
ssS'nh-10_nr-25_nc-5_l2-2.0_lr-0.001_lrpt-0.001_trial-0'
p199
(dp200
g4
F10
sg5
F0.001
sg6
F5
sg7
F0
sg8
F0.001
sg9
F2
sg10
F25
sg11
g12
(g14
S'tY\x96\xe4\\\xf4\xfb?'
tRp201
ssS'nh-10_nr-100_nc-5_l2-2.0_lr-0.001_lrpt-0.001_trial-0'
p202
(dp203
g4
F10
sg5
F0.001
sg6
F5
sg7
F0
sg8
F0.001
sg9
F2
sg10
F100
sg11
g12
(g14
S'a\xd7\x9c\x1fR<\xfd?'
tRp204
ssS'nh-50_nr-50_nc-5_l2-0.01_lr-0.0001_lrpt-0.001_trial-0'
p205
(dp206
g4
F50
sg5
F0.001
sg6
F5
sg7
F0
sg8
F0.0001
sg9
F0.01
sg10
F50
sg11
g12
(g14
S'\xcaq\xc9\xe5* \xfd?'
tRp207
ssS'nh-10_nr-200_nc-1_l2-0.01_lr-0.001_lrpt-0.001_trial-0'
p208
(dp209
g4
F10
sg5
F0.001
sg6
F1
sg7
F0
sg8
F0.001
sg9
F0.01
sg10
F200
sg11
g12
(g14
S'\x00\x94\x1c\xd9G|\xfb?'
tRp210
ssS'nh-100_nr-100_nc-10_l2-2.0_lr-0.0001_lrpt-0.001_trial-0'
p211
(dp212
g4
F100
sg5
F0.001
sg6
F10
sg7
F0
sg8
F0.0001
sg9
F2
sg10
F100
sg11
g12
(g14
S'\xf7DU\xb5O\xa6\xfa?'
tRp213
ssS'nh-100_nr-200_nc-1_l2-2.0_lr-0.001_lrpt-0.001_trial-0'
p214
(dp215
g4
F100
sg5
F0.001
sg6
F1
sg7
F0
sg8
F0.001
sg9
F2
sg10
F200
sg11
g12
(g14
S'H\xe6VN\xcc{\xfc?'
tRp216
ssS'nh-100_nr-50_nc-5_l2-0.01_lr-0.0001_lrpt-0.001_trial-0'
p217
(dp218
g4
F100
sg5
F0.001
sg6
F5
sg7
F0
sg8
F0.0001
sg9
F0.01
sg10
F50
sg11
g12
(g14
S'\xe4\x81\xa9\xdfuU\xf9?'
tRp219
ssS'nh-50_nr-50_nc-10_l2-2.0_lr-0.0001_lrpt-0.001_trial-0'
p220
(dp221
g4
F50
sg5
F0.001
sg6
F10
sg7
F0
sg8
F0.0001
sg9
F2
sg10
F50
sg11
g12
(g14
S'\xc1\x98\x1a@\xa3u\xf8?'
tRp222
ssS'nh-50_nr-50_nc-5_l2-2.0_lr-0.001_lrpt-0.001_trial-0'
p223
(dp224
g4
F50
sg5
F0.001
sg6
F5
sg7
F0
sg8
F0.001
sg9
F2
sg10
F50
sg11
g12
(g14
S'\xe4\xa5zb\xe2H\xf9?'
tRp225
ssS'nh-100_nr-25_nc-10_l2-0.01_lr-0.001_lrpt-0.001_trial-0'
p226
(dp227
g4
F100
sg5
F0.001
sg6
F10
sg7
F0
sg8
F0.001
sg9
F0.01
sg10
F25
sg11
g12
(g14
S'\x96\x92\xf5\x85\xe9)\xfa?'
tRp228
ssS'nh-10_nr-25_nc-1_l2-0.01_lr-0.001_lrpt-0.001_trial-0'
p229
(dp230
g4
F10
sg5
F0.001
sg6
F1
sg7
F0
sg8
F0.001
sg9
F0.01
sg10
F25
sg11
g12
(g14
S'R\xcd\x0e\xc6Fk\xfb?'
tRp231
ssS'nh-50_nr-25_nc-5_l2-0.01_lr-0.001_lrpt-0.001_trial-0'
p232
(dp233
g4
F50
sg5
F0.001
sg6
F5
sg7
F0
sg8
F0.001
sg9
F0.01
sg10
F25
sg11
g12
(g14
S'a\x91\xd9}\xcd:\xf9?'
tRp234
ssS'nh-100_nr-25_nc-5_l2-0.01_lr-0.0001_lrpt-0.001_trial-0'
p235
(dp236
g4
F100
sg5
F0.001
sg6
F5
sg7
F0
sg8
F0.0001
sg9
F0.01
sg10
F25
sg11
g12
(g14
S'\xae\xfaI\xd2%\xb0\xff?'
tRp237
ssS'nh-100_nr-100_nc-1_l2-0.01_lr-0.001_lrpt-0.001_trial-0'
p238
(dp239
g4
F100
sg5
F0.001
sg6
F1
sg7
F0
sg8
F0.001
sg9
F0.01
sg10
F100
sg11
g12
(g14
S's\x12\xc1<\xf0\xa7\xfa?'
tRp240
ssS'nh-100_nr-100_nc-1_l2-2.0_lr-0.0001_lrpt-0.001_trial-0'
p241
(dp242
g4
F100
sg5
F0.001
sg6
F1
sg7
F0
sg8
F0.0001
sg9
F2
sg10
F100
sg11
g12
(g14
S'-t(OC\xe2\xfa?'
tRp243
ssS'nh-100_nr-300_nc-1_l2-2.0_lr-0.001_lrpt-0.001_trial-0'
p244
(dp245
g4
F100
sg5
F0.001
sg6
F1
sg7
F0
sg8
F0.001
sg9
F2
sg10
F300
sg11
g12
(g14
S'\t\x0e\xc7V\x85\xb7\xfb?'
tRp246
ssS'nh-100_nr-50_nc-1_l2-2.0_lr-0.001_lrpt-0.001_trial-0'
p247
(dp248
g4
F100
sg5
F0.001
sg6
F1
sg7
F0
sg8
F0.001
sg9
F2
sg10
F50
sg11
g12
(g14
S'\x11U\xdcRX"\xfb?'
tRp249
ssS'nh-100_nr-100_nc-10_l2-2.0_lr-0.001_lrpt-0.001_trial-0'
p250
(dp251
g4
F100
sg5
F0.001
sg6
F10
sg7
F0
sg8
F0.001
sg9
F2
sg10
F100
sg11
g12
(g14
S'\xe6Mi!\xf9\xeb\xf8?'
tRp252
ssS'nh-100_nr-50_nc-10_l2-0.01_lr-0.0001_lrpt-0.001_trial-0'
p253
(dp254
g4
F100
sg5
F0.001
sg6
F10
sg7
F0
sg8
F0.0001
sg9
F0.01
sg10
F50
sg11
g12
(g14
S'\x8e^\xaf\x95=\x99\xfc?'
tRp255
ssS'nh-50_nr-25_nc-10_l2-2.0_lr-0.001_lrpt-0.001_trial-0'
p256
(dp257
g4
F50
sg5
F0.001
sg6
F10
sg7
F0
sg8
F0.001
sg9
F2
sg10
F25
sg11
g12
(g14
S'\xa3\xd6\xe0\xd1\xa9J\xfa?'
tRp258
ssS'nh-100_nr-200_nc-5_l2-0.01_lr-0.0001_lrpt-0.001_trial-0'
p259
(dp260
g4
F100
sg5
F0.001
sg6
F5
sg7
F0
sg8
F0.0001
sg9
F0.01
sg10
F200
sg11
g12
(g14
S'a\xdeH\x03hy\xfa?'
tRp261
ssS'nh-50_nr-50_nc-10_l2-0.01_lr-0.0001_lrpt-0.001_trial-0'
p262
(dp263
g4
F50
sg5
F0.001
sg6
F10
sg7
F0
sg8
F0.0001
sg9
F0.01
sg10
F50
sg11
g12
(g14
S'\xf4\xf0\xda!\x91x\xfc?'
tRp264
ssS'nh-10_nr-25_nc-2_l2-2.0_lr-0.001_lrpt-0.001_trial-0'
p265
(dp266
g4
F10
sg5
F0.001
sg6
F2
sg7
F0
sg8
F0.001
sg9
F2
sg10
F25
sg11
g12
(g14
S'\xc83\xf9mW\x1c\xfb?'
tRp267
ss.